target datalayout = "e-m:e-p270:32:32-p271:32:32-p272:64:64-i64:64-i128:128-f80:128-n8:16:32:64-S128"
target triple = "x86_64-unknown-linux-gnu"

%struct.QTailQLink = type { ptr, ptr }
%union.anon.2 = type { %struct.QTailQLink }
%struct.FWLCHSEntry = type { %union.anon.1, ptr, ptr, i32, i32, i32 }
%union.anon.1 = type { %struct.QTailQLink }

@.str = private unnamed_addr constant [28 x i8] c"../qemu/system/bootdevice.c\00", align 1
@.str.5 = private unnamed_addr constant [30 x i8] c"dev != NULL || suffix != NULL\00", align 1
@__PRETTY_FUNCTION__.add_boot_device_lchs = private unnamed_addr constant [85 x i8] c"void add_boot_device_lchs(DeviceState *, const char *, uint32_t, uint32_t, uint32_t)\00", align 1
@fw_lchs = internal global %union.anon.2 { %struct.QTailQLink { ptr null, ptr @fw_lchs } }, align 8

; Function Attrs: nounwind sspstrong uwtable
define dso_local void @add_boot_device_lchs(ptr noundef %dev, ptr noundef %suffix, i32 noundef %lcyls, i32 noundef %lheads, i32 noundef %lsecs) #0 {
entry:
  %dev.addr = alloca ptr, align 8
  %suffix.addr = alloca ptr, align 8
  %lcyls.addr = alloca i32, align 4
  %lheads.addr = alloca i32, align 4
  %lsecs.addr = alloca i32, align 4
  %node = alloca ptr, align 8
  store ptr %dev, ptr %dev.addr, align 8
  store ptr %suffix, ptr %suffix.addr, align 8
  store i32 %lcyls, ptr %lcyls.addr, align 4
  store i32 %lheads, ptr %lheads.addr, align 4
  store i32 %lsecs, ptr %lsecs.addr, align 4
  %0 = load i32, ptr %lcyls.addr, align 4
  %tobool = icmp ne i32 %0, 0
  br i1 %tobool, label %if.end, label %land.lhs.true

land.lhs.true:                                    ; preds = %entry
  %1 = load i32, ptr %lheads.addr, align 4
  %tobool1 = icmp ne i32 %1, 0
  br i1 %tobool1, label %if.end, label %land.lhs.true2

land.lhs.true2:                                   ; preds = %land.lhs.true
  %2 = load i32, ptr %lsecs.addr, align 4
  %tobool3 = icmp ne i32 %2, 0
  br i1 %tobool3, label %if.end, label %if.then

if.then:                                          ; preds = %land.lhs.true2
  br label %do.end

if.end:                                           ; preds = %land.lhs.true2, %land.lhs.true, %entry
  %3 = load ptr, ptr %dev.addr, align 8
  %cmp = icmp ne ptr %3, null
  br i1 %cmp, label %if.then5, label %lor.lhs.false

lor.lhs.false:                                    ; preds = %if.end
  %4 = load ptr, ptr %suffix.addr, align 8
  %cmp4 = icmp ne ptr %4, null
  br i1 %cmp4, label %if.then5, label %if.else

if.then5:                                         ; preds = %lor.lhs.false, %if.end
  br label %if.end6

if.else:                                          ; preds = %lor.lhs.false
  call void @__assert_fail(ptr noundef @.str.5, ptr noundef @.str, i32 noundef 369, ptr noundef @__PRETTY_FUNCTION__.add_boot_device_lchs) #7
  unreachable

if.end6:                                          ; preds = %if.then5
  %call = call noalias ptr @g_malloc0_n(i64 noundef 1, i64 noundef 48) #8
  store ptr %call, ptr %node, align 8
  %5 = load ptr, ptr %suffix.addr, align 8
  %call7 = call noalias ptr @g_strdup(ptr noundef %5)
  %6 = load ptr, ptr %node, align 8
  %suffix8 = getelementptr inbounds %struct.FWLCHSEntry, ptr %6, i32 0, i32 2
  store ptr %call7, ptr %suffix8, align 8
  %7 = load ptr, ptr %dev.addr, align 8
  %8 = load ptr, ptr %node, align 8
  %dev9 = getelementptr inbounds %struct.FWLCHSEntry, ptr %8, i32 0, i32 1
  store ptr %7, ptr %dev9, align 8
  %9 = load i32, ptr %lcyls.addr, align 4
  %10 = load ptr, ptr %node, align 8
  %lcyls10 = getelementptr inbounds %struct.FWLCHSEntry, ptr %10, i32 0, i32 3
  store i32 %9, ptr %lcyls10, align 8
  %11 = load i32, ptr %lheads.addr, align 4
  %12 = load ptr, ptr %node, align 8
  %lheads11 = getelementptr inbounds %struct.FWLCHSEntry, ptr %12, i32 0, i32 4
  store i32 %11, ptr %lheads11, align 4
  %13 = load i32, ptr %lsecs.addr, align 4
  %14 = load ptr, ptr %node, align 8
  %lsecs12 = getelementptr inbounds %struct.FWLCHSEntry, ptr %14, i32 0, i32 5
  store i32 %13, ptr %lsecs12, align 8
  br label %do.body

do.body:                                          ; preds = %if.end6
  %15 = load ptr, ptr %node, align 8
  %link = getelementptr inbounds %struct.FWLCHSEntry, ptr %15, i32 0, i32 0
  store ptr null, ptr %link, align 8
  %16 = getelementptr inbounds %struct.QTailQLink, ptr @fw_lchs, i32 0, i32 1
  %17 = load ptr, ptr %16, align 8
  %18 = load ptr, ptr %node, align 8
  %link13 = getelementptr inbounds %struct.FWLCHSEntry, ptr %18, i32 0, i32 0
  %tql_prev = getelementptr inbounds %struct.QTailQLink, ptr %link13, i32 0, i32 1
  store ptr %17, ptr %tql_prev, align 8
  %19 = load ptr, ptr %node, align 8
  %20 = getelementptr inbounds %struct.QTailQLink, ptr @fw_lchs, i32 0, i32 1
  %21 = load ptr, ptr %20, align 8
  %tql_next = getelementptr inbounds %struct.QTailQLink, ptr %21, i32 0, i32 0
  store ptr %19, ptr %tql_next, align 8
  %22 = load ptr, ptr %node, align 8
  %link14 = getelementptr inbounds %struct.FWLCHSEntry, ptr %22, i32 0, i32 0
  %23 = getelementptr inbounds %struct.QTailQLink, ptr @fw_lchs, i32 0, i32 1
  store ptr %link14, ptr %23, align 8
  br label %do.end

do.end:                                           ; preds = %do.body, %if.then
  ret void
}