; Function Attrs: nounwind sspstrong uwtable
define dso_local void @add_boot_device_lchs(ptr noundef %dev, ptr noundef %suffix, i32 noundef %lcyls, i32 noundef %lheads, i32 noundef %lsecs) local_unnamed_addr #1 {
entry:
  %0 = or i32 %lheads, %lcyls
  %1 = or i32 %0, %lsecs
  %or.cond1.not = icmp eq i32 %1, 0
  br i1 %or.cond1.not, label %do.end, label %if.end

if.end:                                           ; preds = %entry
  %cmp = icmp ne ptr %dev, null
  %cmp4 = icmp ne ptr %suffix, null
  %or.cond2 = or i1 %cmp, %cmp4
  br i1 %or.cond2, label %if.end6, label %if.else

if.else:                                          ; preds = %if.end
  tail call void @__assert_fail(ptr noundef nonnull @.str.5, ptr noundef nonnull @.str, i32 noundef 369, ptr noundef nonnull @__PRETTY_FUNCTION__.add_boot_device_lchs) #12
  unreachable

if.end6:                                          ; preds = %if.end
  %call = tail call noalias dereferenceable_or_null(48) ptr @g_malloc0_n(i64 noundef 1, i64 noundef 48) #13
  %call7 = tail call noalias ptr @g_strdup(ptr noundef %suffix) #11
  %suffix8 = getelementptr inbounds nuw i8, ptr %call, i64 24
  store ptr %call7, ptr %suffix8, align 8
  %dev9 = getelementptr inbounds nuw i8, ptr %call, i64 16
  store ptr %dev, ptr %dev9, align 8
  %lcyls10 = getelementptr inbounds nuw i8, ptr %call, i64 32
  store i32 %lcyls, ptr %lcyls10, align 8
  %lheads11 = getelementptr inbounds nuw i8, ptr %call, i64 36
  store i32 %lheads, ptr %lheads11, align 4
  %lsecs12 = getelementptr inbounds nuw i8, ptr %call, i64 40
  store i32 %lsecs, ptr %lsecs12, align 8
  store ptr null, ptr %call, align 8
  %2 = load ptr, ptr getelementptr inbounds nuw (i8, ptr @fw_lchs, i64 8), align 8
  %tql_prev = getelementptr inbounds nuw i8, ptr %call, i64 8
  store ptr %2, ptr %tql_prev, align 8
  store ptr %call, ptr %2, align 8
  store ptr %call, ptr getelementptr inbounds nuw (i8, ptr @fw_lchs, i64 8), align 8
  br label %do.end

do.end:                                           ; preds = %entry, %if.end6
  ret void
}